target datalayout = "e-m:e-p270:32:32-p271:32:32-p272:64:64-i64:64-i128:128-f80:128-n8:16:32:64-S128"
target triple = "x86_64-pc-linux-gnu"

@.str.1024 = private unnamed_addr constant [1 x i8] zeroinitializer, align 1
@.str.1028 = private unnamed_addr constant [6 x i8] c"South\00", align 1
@.str.1029 = private unnamed_addr constant [6 x i8] c"North\00", align 1
@.str.1030 = private unnamed_addr constant [29 x i8] c"[Error: value > 90 degrees] \00", align 1
@.str.1031 = private unnamed_addr constant [5 x i8] c"West\00", align 1
@.str.1032 = private unnamed_addr constant [5 x i8] c"East\00", align 1
@.str.1033 = private unnamed_addr constant [30 x i8] c"[Error: value > 180 degrees] \00", align 1
@.str.1034 = private unnamed_addr constant [96 x i8] c"%s%u.%04lu degrees %s (0x%010lX - %u-bit integer part 0x%04lX / %u-bit fractional part 0x%08lX)\00", align 1

; Function Attrs: nounwind null_pointer_is_valid sspstrong uwtable
define internal i64 @pow10_uint64(i32 noundef %0) #4 {
  %2 = alloca i32, align 4
  %3 = alloca i64, align 8
  store i32 %0, ptr %2, align 4
  call void @llvm.lifetime.start.p0(i64 8, ptr %3) #9
  store i64 1, ptr %3, align 8
  br label %4

4:                                                ; preds = %7, %1
  %5 = load i32, ptr %2, align 4
  %6 = icmp sgt i32 %5, 0
  br i1 %6, label %7, label %12

7:                                                ; preds = %4
  %8 = load i64, ptr %3, align 8
  %9 = mul i64 %8, 10
  store i64 %9, ptr %3, align 8
  %10 = load i32, ptr %2, align 4
  %11 = add i32 %10, -1
  store i32 %11, ptr %2, align 4
  br label %4, !llvm.loop !14

12:                                               ; preds = %4
  br label %13

13:                                               ; preds = %16, %12
  %14 = load i32, ptr %2, align 4
  %15 = icmp slt i32 %14, 0
  br i1 %15, label %16, label %21

16:                                               ; preds = %13
  %17 = load i64, ptr %3, align 8
  %18 = udiv i64 %17, 10
  store i64 %18, ptr %3, align 8
  %19 = load i32, ptr %2, align 4
  %20 = add i32 %19, 1
  store i32 %20, ptr %2, align 4
  br label %13, !llvm.loop !15

21:                                               ; preds = %13
  %22 = load i64, ptr %3, align 8
  call void @llvm.lifetime.end.p0(i64 8, ptr %3) #9
  ret i64 %22
}

; Function Attrs: null_pointer_is_valid sspstrong uwtable
define internal i64 @convertFractionalToFixedSizeDecimal(i64 noundef %0, i32 noundef %1, i32 noundef %2) #0 {
  %4 = alloca i64, align 8
  %5 = alloca i32, align 4
  %6 = alloca i32, align 4
  %7 = alloca i64, align 8
  %8 = alloca i64, align 8
  %9 = alloca i64, align 8
  %10 = alloca i64, align 8
  store i64 %0, ptr %4, align 8
  store i32 %1, ptr %5, align 4
  store i32 %2, ptr %6, align 4
  call void @llvm.lifetime.start.p0(i64 8, ptr %7) #9
  %11 = load i32, ptr %5, align 4
  %12 = zext i32 %11 to i64
  %13 = shl i64 1, %12
  store i64 %13, ptr %7, align 8
  call void @llvm.lifetime.start.p0(i64 8, ptr %8) #9
  %14 = load i64, ptr %7, align 8
  %15 = sub i64 %14, 1
  store i64 %15, ptr %8, align 8
  %16 = load i64, ptr %8, align 8
  %17 = load i64, ptr %4, align 8
  %18 = and i64 %17, %16
  store i64 %18, ptr %4, align 8
  call void @llvm.lifetime.start.p0(i64 8, ptr %9) #9
  %19 = load i32, ptr %6, align 4
  %20 = call i64 @pow10_uint64(i32 noundef %19)
  store i64 %20, ptr %9, align 8
  %21 = load i64, ptr %9, align 8
  %22 = load i64, ptr %4, align 8
  %23 = mul i64 %22, %21
  store i64 %23, ptr %4, align 8
  call void @llvm.lifetime.start.p0(i64 8, ptr %10) #9
  %24 = load i64, ptr %4, align 8
  %25 = load i64, ptr %7, align 8
  %26 = urem i64 %24, %25
  store i64 %26, ptr %10, align 8
  %27 = load i64, ptr %7, align 8
  %28 = load i64, ptr %4, align 8
  %29 = udiv i64 %28, %27
  store i64 %29, ptr %4, align 8
  %30 = load i64, ptr %10, align 8
  %31 = load i64, ptr %7, align 8
  %32 = udiv i64 %31, 2
  %33 = icmp uge i64 %30, %32
  br i1 %33, label %34, label %37

34:                                               ; preds = %3
  %35 = load i64, ptr %4, align 8
  %36 = add i64 %35, 1
  store i64 %36, ptr %4, align 8
  br label %37

37:                                               ; preds = %34, %3
  %38 = load i64, ptr %4, align 8
  call void @llvm.lifetime.end.p0(i64 8, ptr %10) #9
  call void @llvm.lifetime.end.p0(i64 8, ptr %9) #9
  call void @llvm.lifetime.end.p0(i64 8, ptr %8) #9
  call void @llvm.lifetime.end.p0(i64 8, ptr %7) #9
  ret i64 %38
}

; Function Attrs: nounwind null_pointer_is_valid sspstrong uwtable
define internal zeroext i1 @get2sComplementAbsoluteValue(ptr noundef %0, i32 noundef %1) #4 {
  %3 = alloca i1, align 1
  %4 = alloca ptr, align 8
  %5 = alloca i32, align 4
  %6 = alloca i64, align 8
  %7 = alloca i64, align 8
  %8 = alloca i32, align 4
  store ptr %0, ptr %4, align 8
  store i32 %1, ptr %5, align 4
  call void @llvm.lifetime.start.p0(i64 8, ptr %6) #9
  %9 = load i32, ptr %5, align 4
  %10 = sub i32 %9, 1
  %11 = zext i32 %10 to i64
  %12 = shl i64 1, %11
  store i64 %12, ptr %6, align 8
  call void @llvm.lifetime.start.p0(i64 8, ptr %7) #9
  %13 = load i32, ptr %5, align 4
  %14 = zext i32 %13 to i64
  %15 = shl i64 1, %14
  store i64 %15, ptr %7, align 8
  %16 = load i64, ptr %7, align 8
  %17 = add i64 %16, -1
  store i64 %17, ptr %7, align 8
  %18 = load i64, ptr %7, align 8
  %19 = xor i64 %18, -1
  store i64 %19, ptr %7, align 8
  %20 = load ptr, ptr %4, align 8
  %21 = load i64, ptr %20, align 8
  %22 = load i64, ptr %6, align 8
  %23 = and i64 %21, %22
  %24 = icmp ne i64 %23, 0
  br i1 %24, label %25, label %37

25:                                               ; preds = %2
  %26 = load i64, ptr %7, align 8
  %27 = load ptr, ptr %4, align 8
  %28 = load i64, ptr %27, align 8
  %29 = or i64 %28, %26
  store i64 %29, ptr %27, align 8
  %30 = load ptr, ptr %4, align 8
  %31 = load i64, ptr %30, align 8
  %32 = xor i64 %31, -1
  %33 = load ptr, ptr %4, align 8
  store i64 %32, ptr %33, align 8
  %34 = load ptr, ptr %4, align 8
  %35 = load i64, ptr %34, align 8
  %36 = add i64 %35, 1
  store i64 %36, ptr %34, align 8
  store i1 true, ptr %3, align 1
  store i32 1, ptr %8, align 4
  br label %38

37:                                               ; preds = %2
  store i1 false, ptr %3, align 1
  store i32 1, ptr %8, align 4
  br label %38

38:                                               ; preds = %37, %25
  call void @llvm.lifetime.end.p0(i64 8, ptr %7) #9
  call void @llvm.lifetime.end.p0(i64 8, ptr %6) #9
  %39 = load i1, ptr %3, align 1
  ret i1 %39
}

; Function Attrs: nounwind null_pointer_is_valid sspstrong uwtable
define internal i64 @getUint64MaskedValue(i64 noundef %0, i32 noundef %1) #4 {
  %3 = alloca i64, align 8
  %4 = alloca i32, align 4
  %5 = alloca i64, align 8
  store i64 %0, ptr %3, align 8
  store i32 %1, ptr %4, align 4
  call void @llvm.lifetime.start.p0(i64 8, ptr %5) #9
  %6 = load i32, ptr %4, align 4
  %7 = zext i32 %6 to i64
  %8 = shl i64 1, %7
  store i64 %8, ptr %5, align 8
  %9 = load i64, ptr %5, align 8
  %10 = add i64 %9, -1
  store i64 %10, ptr %5, align 8
  %11 = load i64, ptr %3, align 8
  %12 = load i64, ptr %5, align 8
  %13 = and i64 %11, %12
  call void @llvm.lifetime.end.p0(i64 8, ptr %5) #9
  ret i64 %13
}

; Function Attrs: null_pointer_is_valid sspstrong uwtable
define internal void @get_latitude_or_longitude(ptr noundef %0, i32 noundef %1, i64 noundef %2) #0 {
  %4 = alloca ptr, align 8
  %5 = alloca i32, align 4
  %6 = alloca i64, align 8
  %7 = alloca i32, align 4
  %8 = alloca i32, align 4
  %9 = alloca i64, align 8
  %10 = alloca i64, align 8
  %11 = alloca i64, align 8
  %12 = alloca i64, align 8
  %13 = alloca i8, align 1
  %14 = alloca i32, align 4
  %15 = alloca i32, align 4
  %16 = alloca i64, align 8
  %17 = alloca ptr, align 8
  %18 = alloca ptr, align 8
  %19 = alloca i64, align 8
  store ptr %0, ptr %4, align 8
  store i32 %1, ptr %5, align 4
  store i64 %2, ptr %6, align 8
  call void @llvm.lifetime.start.p0(i64 4, ptr %7) #9
  store i32 34, ptr %7, align 4
  call void @llvm.lifetime.start.p0(i64 4, ptr %8) #9
  store i32 25, ptr %8, align 4
  call void @llvm.lifetime.start.p0(i64 8, ptr %9) #9
  store i64 3019898880, ptr %9, align 8
  call void @llvm.lifetime.start.p0(i64 8, ptr %10) #9
  store i64 6039797760, ptr %10, align 8
  call void @llvm.lifetime.start.p0(i64 8, ptr %11) #9
  %20 = load i64, ptr %6, align 8
  %21 = call i64 @getUint64MaskedValue(i64 noundef %20, i32 noundef 34)
  store i64 %21, ptr %11, align 8
  call void @llvm.lifetime.start.p0(i64 8, ptr %12) #9
  %22 = load i64, ptr %11, align 8
  store i64 %22, ptr %12, align 8
  call void @llvm.lifetime.start.p0(i64 1, ptr %13) #9
  %23 = call zeroext i1 @get2sComplementAbsoluteValue(ptr noundef %12, i32 noundef 34)
  %24 = zext i1 %23 to i8
  store i8 %24, ptr %13, align 1
  call void @llvm.lifetime.start.p0(i64 4, ptr %14) #9
  %25 = load i64, ptr %12, align 8
  %26 = lshr i64 %25, 25
  %27 = trunc i64 %26 to i32
  store i32 %27, ptr %14, align 4
  call void @llvm.lifetime.start.p0(i64 4, ptr %15) #9
  store i32 4, ptr %15, align 4
  call void @llvm.lifetime.start.p0(i64 8, ptr %16) #9
  %28 = load i64, ptr %12, align 8
  %29 = call i64 @convertFractionalToFixedSizeDecimal(i64 noundef %28, i32 noundef 25, i32 noundef 4)
  store i64 %29, ptr %16, align 8
  call void @llvm.lifetime.start.p0(i64 8, ptr %17) #9
  call void @llvm.lifetime.start.p0(i64 8, ptr %18) #9
  store ptr @.str.1024, ptr %18, align 8
  %30 = load i32, ptr %5, align 4
  %31 = icmp eq i32 %30, 0
  br i1 %31, label %32, label %42

32:                                               ; preds = %3
  %33 = load i8, ptr %13, align 1, !range !11, !noundef !12
  %34 = trunc i8 %33 to i1
  br i1 %34, label %35, label %36

35:                                               ; preds = %32
  store ptr @.str.1028, ptr %17, align 8
  br label %37

36:                                               ; preds = %32
  store ptr @.str.1029, ptr %17, align 8
  br label %37

37:                                               ; preds = %36, %35
  %38 = load i64, ptr %12, align 8
  %39 = icmp ugt i64 %38, 3019898880
  br i1 %39, label %40, label %41

40:                                               ; preds = %37
  store ptr @.str.1030, ptr %18, align 8
  br label %41

41:                                               ; preds = %40, %37
  br label %52

42:                                               ; preds = %3
  %43 = load i8, ptr %13, align 1, !range !11, !noundef !12
  %44 = trunc i8 %43 to i1
  br i1 %44, label %45, label %46

45:                                               ; preds = %42
  store ptr @.str.1031, ptr %17, align 8
  br label %47

46:                                               ; preds = %42
  store ptr @.str.1032, ptr %17, align 8
  br label %47

47:                                               ; preds = %46, %45
  %48 = load i64, ptr %12, align 8
  %49 = icmp ugt i64 %48, 6039797760
  br i1 %49, label %50, label %51

50:                                               ; preds = %47
  store ptr @.str.1033, ptr %18, align 8
  br label %51

51:                                               ; preds = %50, %47
  br label %52

52:                                               ; preds = %51, %41
  call void @llvm.lifetime.start.p0(i64 8, ptr %19) #9
  store i64 33554431, ptr %19, align 8
  %53 = load ptr, ptr %4, align 8
  %54 = load ptr, ptr %4, align 8
  %55 = call i64 @llvm.objectsize.i64.p0(ptr %54, i1 false, i1 true, i1 true)
  %56 = load ptr, ptr %18, align 8
  %57 = load i32, ptr %14, align 4
  %58 = load i64, ptr %16, align 8
  %59 = load ptr, ptr %17, align 8
  %60 = load i64, ptr %11, align 8
  %61 = load i64, ptr %11, align 8
  %62 = lshr i64 %61, 25
  %63 = load i64, ptr %11, align 8
  %64 = and i64 %63, 33554431
  %65 = call i32 (ptr, i64, i32, i64, ptr, ...) @__snprintf_chk(ptr noundef %53, i64 noundef 240, i32 noundef 2, i64 noundef %55, ptr noundef @.str.1034, ptr noundef %56, i32 noundef %57, i64 noundef %58, ptr noundef %59, i64 noundef %60, i32 noundef 9, i64 noundef %62, i32 noundef 25, i64 noundef %64)
  call void @llvm.lifetime.end.p0(i64 8, ptr %19) #9
  call void @llvm.lifetime.end.p0(i64 8, ptr %18) #9
  call void @llvm.lifetime.end.p0(i64 8, ptr %17) #9
  call void @llvm.lifetime.end.p0(i64 8, ptr %16) #9
  call void @llvm.lifetime.end.p0(i64 4, ptr %15) #9
  call void @llvm.lifetime.end.p0(i64 4, ptr %14) #9
  call void @llvm.lifetime.end.p0(i64 1, ptr %13) #9
  call void @llvm.lifetime.end.p0(i64 8, ptr %12) #9
  call void @llvm.lifetime.end.p0(i64 8, ptr %11) #9
  call void @llvm.lifetime.end.p0(i64 8, ptr %10) #9
  call void @llvm.lifetime.end.p0(i64 8, ptr %9) #9
  call void @llvm.lifetime.end.p0(i64 4, ptr %8) #9
  call void @llvm.lifetime.end.p0(i64 4, ptr %7) #9
  ret void
}

; Function Attrs: null_pointer_is_valid sspstrong uwtable
define internal void @longitude_base(ptr noundef %0, i64 noundef %1) #0 {
  %3 = alloca ptr, align 8
  %4 = alloca i64, align 8
  store ptr %0, ptr %3, align 8
  store i64 %1, ptr %4, align 8
  %5 = load ptr, ptr %3, align 8
  %6 = load i64, ptr %4, align 8
  call void @get_latitude_or_longitude(ptr noundef %5, i32 noundef 1, i64 noundef %6)
  ret void
}