; Function Attrs: nofree null_pointer_is_valid sspstrong uwtable
define internal void @longitude_base(ptr noundef %0, i64 noundef %1) #2 {
  %3 = and i64 %1, 17179869183
  %4 = and i64 %1, 8589934592
  %.not.i.not.i = icmp eq i64 %4, 0
  %5 = or i64 %1, -17179869184
  %6 = sub nsw i64 0, %5
  %.0.i = select i1 %.not.i.not.i, i64 %3, i64 %6
  %.str.1031..str.1032.i = select i1 %.not.i.not.i, ptr @.str.1032, ptr @.str.1031
  %7 = icmp samesign ugt i64 %.0.i, 6039797760
  %spec.select14.i = select i1 %7, ptr @.str.1033, ptr @.str.1024
  %8 = and i64 %.0.i, 33554431
  %9 = mul nuw nsw i64 %8, 10000
  %10 = lshr i64 %9, 25
  %11 = lshr i64 %9, 24
  %.lobit.i = and i64 %11, 1
  %spec.select.i.i = add nuw nsw i64 %.lobit.i, %10
  %12 = lshr i64 %.0.i, 25
  %13 = trunc nuw nsw i64 %12 to i32
  %14 = lshr i64 %3, 25
  %15 = and i64 %1, 33554431
  %16 = tail call i32 (ptr, i64, i32, i64, ptr, ...) @__snprintf_chk(ptr noundef %0, i64 noundef 240, i32 noundef 2, i64 noundef -1, ptr noundef nonnull @.str.1034, ptr noundef nonnull %spec.select14.i, i32 noundef %13, i64 noundef %spec.select.i.i, ptr noundef nonnull %.str.1031..str.1032.i, i64 noundef %3, i32 noundef 9, i64 noundef %14, i32 noundef 25, i64 noundef %15)
  ret void
}